target datalayout = "e-m:e-p270:32:32-p271:32:32-p272:64:64-i64:64-i128:128-f80:128-n8:16:32:64-S128"
target triple = "x86_64-pc-linux-gnu"

%"class.std::vector" = type { %"struct.std::_Vector_base" }
%"struct.std::_Vector_base" = type { %"struct.std::_Vector_base<pxrInternal_v0_24__pxrReserved__::TfToken, std::allocator<pxrInternal_v0_24__pxrReserved__::TfToken>>::_Vector_impl" }
%"struct.std::_Vector_base<pxrInternal_v0_24__pxrReserved__::TfToken, std::allocator<pxrInternal_v0_24__pxrReserved__::TfToken>>::_Vector_impl" = type { %"struct.std::_Vector_base<pxrInternal_v0_24__pxrReserved__::TfToken, std::allocator<pxrInternal_v0_24__pxrReserved__::TfToken>>::_Vector_impl_data" }
%"struct.std::_Vector_base<pxrInternal_v0_24__pxrReserved__::TfToken, std::allocator<pxrInternal_v0_24__pxrReserved__::TfToken>>::_Vector_impl_data" = type { ptr, ptr, ptr }
%"class.std::shared_ptr" = type { %"class.std::__shared_ptr" }
%"class.std::__shared_ptr" = type { ptr, %"class.std::__shared_count" }
%"class.std::__shared_count" = type { ptr }

; Function Attrs: mustprogress nounwind uwtable
define linkonce_odr void @_ZNSt15__new_allocatorIN32pxrInternal_v0_24__pxrReserved__7TfTokenEEC2Ev(ptr noundef nonnull align 1 dereferenceable(1) %0) unnamed_addr #0 comdat align 2 {
  %2 = alloca ptr, align 8
  store ptr %0, ptr %2, align 8
  ret void
}

; Function Attrs: mustprogress nounwind uwtable
define linkonce_odr void @_ZNSt12_Vector_baseIN32pxrInternal_v0_24__pxrReserved__7TfTokenESaIS1_EE17_Vector_impl_dataC2Ev(ptr noundef nonnull align 8 dereferenceable(24) %0) unnamed_addr #0 comdat align 2 {
  %2 = alloca ptr, align 8
  store ptr %0, ptr %2, align 8
  %3 = load ptr, ptr %2, align 8
  %4 = getelementptr inbounds nuw %"struct.std::_Vector_base<pxrInternal_v0_24__pxrReserved__::TfToken, std::allocator<pxrInternal_v0_24__pxrReserved__::TfToken>>::_Vector_impl_data", ptr %3, i32 0, i32 0
  store ptr null, ptr %4, align 8
  %5 = getelementptr inbounds nuw %"struct.std::_Vector_base<pxrInternal_v0_24__pxrReserved__::TfToken, std::allocator<pxrInternal_v0_24__pxrReserved__::TfToken>>::_Vector_impl_data", ptr %3, i32 0, i32 1
  store ptr null, ptr %5, align 8
  %6 = getelementptr inbounds nuw %"struct.std::_Vector_base<pxrInternal_v0_24__pxrReserved__::TfToken, std::allocator<pxrInternal_v0_24__pxrReserved__::TfToken>>::_Vector_impl_data", ptr %3, i32 0, i32 2
  store ptr null, ptr %6, align 8
  ret void
}

; Function Attrs: mustprogress nounwind uwtable
define linkonce_odr void @_ZNSaIN32pxrInternal_v0_24__pxrReserved__7TfTokenEEC2Ev(ptr noundef nonnull align 1 dereferenceable(1) %0) unnamed_addr #0 comdat align 2 {
  %2 = alloca ptr, align 8
  store ptr %0, ptr %2, align 8
  %3 = load ptr, ptr %2, align 8
  call void @_ZNSt15__new_allocatorIN32pxrInternal_v0_24__pxrReserved__7TfTokenEEC2Ev(ptr noundef nonnull align 1 dereferenceable(1) %3) #4
  ret void
}

; Function Attrs: mustprogress nounwind uwtable
define linkonce_odr void @_ZNSt12_Vector_baseIN32pxrInternal_v0_24__pxrReserved__7TfTokenESaIS1_EE12_Vector_implC2Ev(ptr noundef nonnull align 8 dereferenceable(24) %0) unnamed_addr #0 comdat align 2 {
  %2 = alloca ptr, align 8
  store ptr %0, ptr %2, align 8
  %3 = load ptr, ptr %2, align 8
  call void @_ZNSaIN32pxrInternal_v0_24__pxrReserved__7TfTokenEEC2Ev(ptr noundef nonnull align 1 dereferenceable(1) %3) #4
  call void @_ZNSt12_Vector_baseIN32pxrInternal_v0_24__pxrReserved__7TfTokenESaIS1_EE17_Vector_impl_dataC2Ev(ptr noundef nonnull align 8 dereferenceable(24) %3) #4
  ret void
}

; Function Attrs: mustprogress nounwind uwtable
define linkonce_odr noundef ptr @_ZNKSt12__shared_ptrIN32pxrInternal_v0_24__pxrReserved__21HdContainerDataSourceELN9__gnu_cxx12_Lock_policyE2EE3getEv(ptr noundef nonnull align 8 dereferenceable(16) %0) #0 comdat align 2 {
  %2 = alloca ptr, align 8
  store ptr %0, ptr %2, align 8
  %3 = load ptr, ptr %2, align 8
  %4 = getelementptr inbounds nuw %"class.std::__shared_ptr", ptr %3, i32 0, i32 0
  %5 = load ptr, ptr %4, align 8
  ret ptr %5
}

; Function Attrs: mustprogress nounwind uwtable
define linkonce_odr void @_ZNSt12_Vector_baseIN32pxrInternal_v0_24__pxrReserved__7TfTokenESaIS1_EEC2Ev(ptr noundef nonnull align 8 dereferenceable(24) %0) unnamed_addr #0 comdat align 2 {
  %2 = alloca ptr, align 8
  store ptr %0, ptr %2, align 8
  %3 = load ptr, ptr %2, align 8
  %4 = getelementptr inbounds nuw %"struct.std::_Vector_base", ptr %3, i32 0, i32 0
  call void @_ZNSt12_Vector_baseIN32pxrInternal_v0_24__pxrReserved__7TfTokenESaIS1_EE12_Vector_implC2Ev(ptr noundef nonnull align 8 dereferenceable(24) %4) #4
  ret void
}

; Function Attrs: mustprogress nounwind uwtable
define linkonce_odr noundef ptr @_ZNKSt19__shared_ptr_accessIN32pxrInternal_v0_24__pxrReserved__21HdContainerDataSourceELN9__gnu_cxx12_Lock_policyE2ELb0ELb0EE6_M_getEv(ptr noundef nonnull align 1 dereferenceable(1) %0) #0 comdat align 2 {
  %2 = alloca ptr, align 8
  store ptr %0, ptr %2, align 8
  %3 = load ptr, ptr %2, align 8
  %4 = call noundef ptr @_ZNKSt12__shared_ptrIN32pxrInternal_v0_24__pxrReserved__21HdContainerDataSourceELN9__gnu_cxx12_Lock_policyE2EE3getEv(ptr noundef nonnull align 8 dereferenceable(16) %3) #4
  ret ptr %4
}

; Function Attrs: mustprogress nounwind uwtable
define linkonce_odr void @_ZNSt6vectorIN32pxrInternal_v0_24__pxrReserved__7TfTokenESaIS1_EEC2Ev(ptr noundef nonnull align 8 dereferenceable(24) %0) unnamed_addr #0 comdat align 2 {
  %2 = alloca ptr, align 8
  store ptr %0, ptr %2, align 8
  %3 = load ptr, ptr %2, align 8
  call void @_ZNSt12_Vector_baseIN32pxrInternal_v0_24__pxrReserved__7TfTokenESaIS1_EEC2Ev(ptr noundef nonnull align 8 dereferenceable(24) %3) #4
  ret void
}

; Function Attrs: mustprogress nounwind uwtable
define linkonce_odr noundef ptr @_ZNKSt19__shared_ptr_accessIN32pxrInternal_v0_24__pxrReserved__21HdContainerDataSourceELN9__gnu_cxx12_Lock_policyE2ELb0ELb0EEptEv(ptr noundef nonnull align 1 dereferenceable(1) %0) #0 comdat align 2 {
  %2 = alloca ptr, align 8
  store ptr %0, ptr %2, align 8
  %3 = load ptr, ptr %2, align 8
  %4 = call noundef ptr @_ZNKSt19__shared_ptr_accessIN32pxrInternal_v0_24__pxrReserved__21HdContainerDataSourceELN9__gnu_cxx12_Lock_policyE2ELb0ELb0EE6_M_getEv(ptr noundef nonnull align 1 dereferenceable(1) %3) #4
  ret ptr %4
}

; Function Attrs: mustprogress nounwind uwtable
define linkonce_odr noundef zeroext i1 @_ZNKSt12__shared_ptrIN32pxrInternal_v0_24__pxrReserved__21HdContainerDataSourceELN9__gnu_cxx12_Lock_policyE2EEcvbEv(ptr noundef nonnull align 8 dereferenceable(16) %0) #0 comdat align 2 {
  %2 = alloca ptr, align 8
  store ptr %0, ptr %2, align 8
  %3 = load ptr, ptr %2, align 8
  %4 = getelementptr inbounds nuw %"class.std::__shared_ptr", ptr %3, i32 0, i32 0
  %5 = load ptr, ptr %4, align 8
  %6 = icmp ne ptr %5, null
  ret i1 %6
}

; Function Attrs: mustprogress uwtable
define void @_ZN32pxrInternal_v0_24__pxrReserved__42UsdImagingCollectionMaterialBindingsSchema11GetPurposesEv(ptr dead_on_unwind noalias writable sret(%"class.std::vector") align 8 %0, ptr noundef nonnull align 8 dereferenceable(16) %1) #1 align 2 personality ptr @__gxx_personality_v0 {
  %3 = alloca ptr, align 8
  %4 = alloca ptr, align 8
  %5 = alloca %"class.std::shared_ptr", align 8
  %6 = alloca ptr, align 8
  %7 = alloca i32, align 4
  %8 = alloca i32, align 4
  store ptr %0, ptr %3, align 8
  store ptr %1, ptr %4, align 8
  %9 = load ptr, ptr %4, align 8
  call void @_ZNK32pxrInternal_v0_24__pxrReserved__8HdSchema12GetContainerEv(ptr dead_on_unwind writable sret(%"class.std::shared_ptr") align 8 %5, ptr noundef nonnull align 8 dereferenceable(16) %9)
  %10 = call noundef zeroext i1 @_ZNKSt12__shared_ptrIN32pxrInternal_v0_24__pxrReserved__21HdContainerDataSourceELN9__gnu_cxx12_Lock_policyE2EEcvbEv(ptr noundef nonnull align 8 dereferenceable(16) %5) #4
  br i1 %10, label %11, label %21

11:                                               ; preds = %2
  %12 = call noundef ptr @_ZNKSt19__shared_ptr_accessIN32pxrInternal_v0_24__pxrReserved__21HdContainerDataSourceELN9__gnu_cxx12_Lock_policyE2ELb0ELb0EEptEv(ptr noundef nonnull align 1 dereferenceable(1) %5) #4
  %13 = load ptr, ptr %12, align 8
  %14 = getelementptr inbounds ptr, ptr %13, i64 2
  %15 = load ptr, ptr %14, align 8
  invoke void %15(ptr dead_on_unwind writable sret(%"class.std::vector") align 8 %0, ptr noundef nonnull align 8 dereferenceable(8) %12)
          to label %16 unwind label %17

16:                                               ; preds = %11
  store i32 1, ptr %8, align 4
  br label %22

17:                                               ; preds = %11
  %18 = landingpad { ptr, i32 }
          cleanup
  %19 = extractvalue { ptr, i32 } %18, 0
  store ptr %19, ptr %6, align 8
  %20 = extractvalue { ptr, i32 } %18, 1
  store i32 %20, ptr %7, align 4
  call void @_ZNSt10shared_ptrIN32pxrInternal_v0_24__pxrReserved__21HdContainerDataSourceEED2Ev(ptr noundef nonnull align 8 dereferenceable(16) %5) #4
  br label %26

21:                                               ; preds = %2
  store i32 0, ptr %8, align 4
  br label %22

22:                                               ; preds = %21, %16
  call void @_ZNSt10shared_ptrIN32pxrInternal_v0_24__pxrReserved__21HdContainerDataSourceEED2Ev(ptr noundef nonnull align 8 dereferenceable(16) %5) #4
  %23 = load i32, ptr %8, align 4
  switch i32 %23, label %31 [
    i32 0, label %24
    i32 1, label %25
  ]

24:                                               ; preds = %22
  call void @llvm.memset.p0.i64(ptr align 8 %0, i8 0, i64 24, i1 false)
  call void @_ZNSt6vectorIN32pxrInternal_v0_24__pxrReserved__7TfTokenESaIS1_EEC2Ev(ptr noundef nonnull align 8 dereferenceable(24) %0) #4
  br label %25

25:                                               ; preds = %24, %22
  ret void

26:                                               ; preds = %17
  %27 = load ptr, ptr %6, align 8
  %28 = load i32, ptr %7, align 4
  %29 = insertvalue { ptr, i32 } poison, ptr %27, 0
  %30 = insertvalue { ptr, i32 } %29, i32 %28, 1
  resume { ptr, i32 } %30

31:                                               ; preds = %22
  unreachable
}